target datalayout = "e-m:e-p270:32:32-p271:32:32-p272:64:64-i64:64-i128:128-f80:128-n8:16:32:64-S128"
target triple = "x86_64-pc-linux-gnu"

%"struct.std::_Vector_base.10" = type { %"struct.std::_Vector_base<float, std::allocator<float>>::_Vector_impl" }
%"struct.std::_Vector_base<float, std::allocator<float>>::_Vector_impl" = type { %"struct.std::_Vector_base<float, std::allocator<float>>::_Vector_impl_data" }
%"struct.std::_Vector_base<float, std::allocator<float>>::_Vector_impl_data" = type { ptr, ptr, ptr }
%"class.std::__cxx11::basic_string" = type { %"struct.std::__cxx11::basic_string<char>::_Alloc_hider", i64, %union.anon }
%"struct.std::__cxx11::basic_string<char>::_Alloc_hider" = type { ptr }
%union.anon = type { i64, [8 x i8] }
%"class.zxing::ReaderErrorHandler" = type { %"class.zxing::ErrorHandler" }
%"class.zxing::ErrorHandler" = type { ptr, i32, i32, %"class.std::__cxx11::basic_string" }

@.str.1 = private unnamed_addr constant [33 x i8] c"checkAndNudgePoints:: no points!\00", align 1
@.str.2 = private unnamed_addr constant [36 x i8] c"checkAndNudgePoints::Out of bounds!\00", align 1
@_ZTVN5zxing12ErrorHandlerE = external unnamed_addr constant { [10 x ptr] }, align 8

; Function Attrs: mustprogress nounwind uwtable
define linkonce_odr hidden void @_ZN5zxing12ErrorHandlerD2Ev(ptr noundef nonnull align 8 dereferenceable(48) %0) unnamed_addr #1 comdat align 2 {
  %2 = alloca ptr, align 8
  store ptr %0, ptr %2, align 8
  %3 = load ptr, ptr %2, align 8
  store ptr getelementptr inbounds inrange(-16, 64) ({ [10 x ptr] }, ptr @_ZTVN5zxing12ErrorHandlerE, i32 0, i32 0, i32 2), ptr %3, align 8
  %4 = getelementptr inbounds %"class.zxing::ErrorHandler", ptr %3, i32 0, i32 3
  call void @_ZNSt7__cxx1112basic_stringIcSt11char_traitsIcESaIcEED1Ev(ptr noundef nonnull align 8 dereferenceable(32) %4) #11
  ret void
}

; Function Attrs: mustprogress nounwind uwtable
define linkonce_odr hidden void @_ZN5zxing18ReaderErrorHandlerD2Ev(ptr noundef nonnull align 8 dereferenceable(48) %0) unnamed_addr #1 comdat align 2 {
  %2 = alloca ptr, align 8
  store ptr %0, ptr %2, align 8
  %3 = load ptr, ptr %2, align 8
  call void @_ZN5zxing12ErrorHandlerD2Ev(ptr noundef nonnull align 8 dereferenceable(48) %3) #11
  ret void
}

; Function Attrs: mustprogress uwtable
define linkonce_odr hidden void @_ZN5zxing18ReaderErrorHandlerC2EPKc(ptr noundef nonnull align 8 dereferenceable(48) %0, ptr noundef %1) unnamed_addr #2 comdat align 2 personality ptr @__gxx_personality_v0 {
  %3 = alloca ptr, align 8
  %4 = alloca ptr, align 8
  %5 = alloca ptr, align 8
  %6 = alloca i32, align 4
  store ptr %0, ptr %3, align 8
  store ptr %1, ptr %4, align 8
  %7 = load ptr, ptr %3, align 8
  %8 = load ptr, ptr %4, align 8
  call void @_ZN5zxing12ErrorHandlerC2EPKc(ptr noundef nonnull align 8 dereferenceable(48) %7, ptr noundef %8)
  store ptr getelementptr inbounds inrange(-16, 64) ({ [10 x ptr] }, ptr @_ZTVN5zxing18ReaderErrorHandlerE, i32 0, i32 0, i32 2), ptr %7, align 8
  %9 = load ptr, ptr %7, align 8
  %10 = getelementptr inbounds ptr, ptr %9, i64 5
  %11 = load ptr, ptr %10, align 8
  invoke void %11(ptr noundef nonnull align 8 dereferenceable(48) %7)
          to label %12 unwind label %13

12:                                               ; preds = %2
  ret void

13:                                               ; preds = %2
  %14 = landingpad { ptr, i32 }
          cleanup
  %15 = extractvalue { ptr, i32 } %14, 0
  store ptr %15, ptr %5, align 8
  %16 = extractvalue { ptr, i32 } %14, 1
  store i32 %16, ptr %6, align 4
  call void @_ZN5zxing12ErrorHandlerD2Ev(ptr noundef nonnull align 8 dereferenceable(48) %7) #11
  br label %17

17:                                               ; preds = %13
  %18 = load ptr, ptr %5, align 8
  %19 = load i32, ptr %6, align 4
  %20 = insertvalue { ptr, i32 } poison, ptr %18, 0
  %21 = insertvalue { ptr, i32 } %20, i32 %19, 1
  resume { ptr, i32 } %21
}

; Function Attrs: mustprogress nounwind uwtable
define linkonce_odr hidden noundef nonnull align 4 dereferenceable(4) ptr @_ZNSt6vectorIfSaIfEEixEm(ptr noundef nonnull align 8 dereferenceable(24) %0, i64 noundef %1) #1 comdat align 2 {
  %3 = alloca ptr, align 8
  %4 = alloca i64, align 8
  store ptr %0, ptr %3, align 8
  store i64 %1, ptr %4, align 8
  %5 = load ptr, ptr %3, align 8
  %6 = getelementptr inbounds %"struct.std::_Vector_base.10", ptr %5, i32 0, i32 0
  %7 = getelementptr inbounds %"struct.std::_Vector_base<float, std::allocator<float>>::_Vector_impl_data", ptr %6, i32 0, i32 0
  %8 = load ptr, ptr %7, align 8
  %9 = load i64, ptr %4, align 8
  %10 = getelementptr inbounds float, ptr %8, i64 %9
  ret ptr %10
}

; Function Attrs: mustprogress nounwind uwtable
define linkonce_odr hidden noundef i64 @_ZNKSt6vectorIfSaIfEE4sizeEv(ptr noundef nonnull align 8 dereferenceable(24) %0) #1 comdat align 2 {
  %2 = alloca ptr, align 8
  store ptr %0, ptr %2, align 8
  %3 = load ptr, ptr %2, align 8
  %4 = getelementptr inbounds %"struct.std::_Vector_base.10", ptr %3, i32 0, i32 0
  %5 = getelementptr inbounds %"struct.std::_Vector_base<float, std::allocator<float>>::_Vector_impl_data", ptr %4, i32 0, i32 1
  %6 = load ptr, ptr %5, align 8
  %7 = getelementptr inbounds %"struct.std::_Vector_base.10", ptr %3, i32 0, i32 0
  %8 = getelementptr inbounds %"struct.std::_Vector_base<float, std::allocator<float>>::_Vector_impl_data", ptr %7, i32 0, i32 0
  %9 = load ptr, ptr %8, align 8
  %10 = ptrtoint ptr %6 to i64
  %11 = ptrtoint ptr %9 to i64
  %12 = sub i64 %10, %11
  %13 = sdiv exact i64 %12, 4
  ret i64 %13
}

; Function Attrs: mustprogress uwtable
define hidden noundef i32 @_ZN5zxing11GridSampler19checkAndNudgePointsEiiRSt6vectorIfSaIfEERNS_12ErrorHandlerE(i32 noundef %0, i32 noundef %1, ptr noundef nonnull align 8 dereferenceable(24) %2, ptr noundef nonnull align 8 dereferenceable(48) %3) #2 align 2 personality ptr @__gxx_personality_v0 {
  %5 = alloca i32, align 4
  %6 = alloca i32, align 4
  %7 = alloca i32, align 4
  %8 = alloca ptr, align 8
  %9 = alloca ptr, align 8
  %10 = alloca ptr, align 8
  %11 = alloca %"class.zxing::ReaderErrorHandler", align 8
  %12 = alloca ptr, align 8
  %13 = alloca i32, align 4
  %14 = alloca i32, align 4
  %15 = alloca i32, align 4
  %16 = alloca float, align 4
  %17 = alloca i64, align 8
  %18 = alloca i32, align 4
  %19 = alloca i32, align 4
  %20 = alloca %"class.zxing::ReaderErrorHandler", align 8
  store i32 %0, ptr %6, align 4
  store i32 %1, ptr %7, align 4
  store ptr %2, ptr %8, align 8
  store ptr %3, ptr %9, align 8
  store ptr null, ptr %10, align 8
  %21 = load ptr, ptr %8, align 8
  %22 = call noundef i64 @_ZNKSt6vectorIfSaIfEE4sizeEv(ptr noundef nonnull align 8 dereferenceable(24) %21) #11
  %23 = icmp ugt i64 %22, 0
  br i1 %23, label %24, label %27

24:                                               ; preds = %4
  %25 = load ptr, ptr %8, align 8
  %26 = call noundef nonnull align 4 dereferenceable(4) ptr @_ZNSt6vectorIfSaIfEEixEm(ptr noundef nonnull align 8 dereferenceable(24) %25, i64 noundef 0) #11
  store ptr %26, ptr %10, align 8
  br label %35

27:                                               ; preds = %4
  call void @_ZN5zxing18ReaderErrorHandlerC2EPKc(ptr noundef nonnull align 8 dereferenceable(48) %11, ptr noundef @.str.1)
  %28 = load ptr, ptr %9, align 8
  %29 = invoke noundef nonnull align 8 dereferenceable(48) ptr @_ZN5zxing12ErrorHandleraSERKS0_(ptr noundef nonnull align 8 dereferenceable(48) %28, ptr noundef nonnull align 8 dereferenceable(48) %11)
          to label %30 unwind label %31

30:                                               ; preds = %27
  call void @_ZN5zxing18ReaderErrorHandlerD2Ev(ptr noundef nonnull align 8 dereferenceable(48) %11) #11
  store i32 -1, ptr %5, align 4
  br label %160

31:                                               ; preds = %27
  %32 = landingpad { ptr, i32 }
          cleanup
  %33 = extractvalue { ptr, i32 } %32, 0
  store ptr %33, ptr %12, align 8
  %34 = extractvalue { ptr, i32 } %32, 1
  store i32 %34, ptr %13, align 4
  call void @_ZN5zxing18ReaderErrorHandlerD2Ev(ptr noundef nonnull align 8 dereferenceable(48) %11) #11
  br label %162

35:                                               ; preds = %24
  %36 = load ptr, ptr %8, align 8
  %37 = call noundef i64 @_ZNKSt6vectorIfSaIfEE4sizeEv(ptr noundef nonnull align 8 dereferenceable(24) %36) #11
  %38 = trunc i64 %37 to i32
  %39 = sdiv i32 %38, 2
  store i32 %39, ptr %14, align 4
  store i32 0, ptr %15, align 4
  %40 = load i32, ptr %6, align 4
  %41 = load i32, ptr %14, align 4
  %42 = sdiv i32 %40, %41
  %43 = mul nsw i32 %42, 3
  %44 = sitofp i32 %43 to float
  store float %44, ptr %16, align 4
  store i64 0, ptr %17, align 8
  br label %45

45:                                               ; preds = %155, %35
  %46 = load i64, ptr %17, align 8
  %47 = load ptr, ptr %8, align 8
  %48 = call noundef i64 @_ZNKSt6vectorIfSaIfEE4sizeEv(ptr noundef nonnull align 8 dereferenceable(24) %47) #11
  %49 = icmp ult i64 %46, %48
  br i1 %49, label %50, label %158

50:                                               ; preds = %45
  %51 = load ptr, ptr %10, align 8
  %52 = load i64, ptr %17, align 8
  %53 = getelementptr inbounds float, ptr %51, i64 %52
  %54 = load float, ptr %53, align 4
  %55 = fptosi float %54 to i32
  store i32 %55, ptr %18, align 4
  %56 = load ptr, ptr %10, align 8
  %57 = load i64, ptr %17, align 8
  %58 = add i64 %57, 1
  %59 = getelementptr inbounds float, ptr %56, i64 %58
  %60 = load float, ptr %59, align 4
  %61 = fptosi float %60 to i32
  store i32 %61, ptr %19, align 4
  %62 = load i32, ptr %18, align 4
  %63 = icmp slt i32 %62, -1
  br i1 %63, label %75, label %64

64:                                               ; preds = %50
  %65 = load i32, ptr %18, align 4
  %66 = load i32, ptr %6, align 4
  %67 = icmp sgt i32 %65, %66
  br i1 %67, label %75, label %68

68:                                               ; preds = %64
  %69 = load i32, ptr %19, align 4
  %70 = icmp slt i32 %69, -1
  br i1 %70, label %75, label %71

71:                                               ; preds = %68
  %72 = load i32, ptr %19, align 4
  %73 = load i32, ptr %7, align 4
  %74 = icmp sgt i32 %72, %73
  br i1 %74, label %75, label %114

75:                                               ; preds = %71, %68, %64, %50
  %76 = load i32, ptr %15, align 4
  %77 = add nsw i32 %76, 1
  store i32 %77, ptr %15, align 4
  %78 = load i32, ptr %18, align 4
  %79 = sitofp i32 %78 to float
  %80 = load i32, ptr %6, align 4
  %81 = sitofp i32 %80 to float
  %82 = load float, ptr %16, align 4
  %83 = fadd float %81, %82
  %84 = fcmp ogt float %79, %83
  br i1 %84, label %105, label %85

85:                                               ; preds = %75
  %86 = load i32, ptr %19, align 4
  %87 = sitofp i32 %86 to float
  %88 = load i32, ptr %7, align 4
  %89 = sitofp i32 %88 to float
  %90 = load float, ptr %16, align 4
  %91 = fadd float %89, %90
  %92 = fcmp ogt float %87, %91
  br i1 %92, label %105, label %93

93:                                               ; preds = %85
  %94 = load i32, ptr %18, align 4
  %95 = sitofp i32 %94 to float
  %96 = load float, ptr %16, align 4
  %97 = fneg float %96
  %98 = fcmp olt float %95, %97
  br i1 %98, label %105, label %99

99:                                               ; preds = %93
  %100 = load i32, ptr %19, align 4
  %101 = sitofp i32 %100 to float
  %102 = load float, ptr %16, align 4
  %103 = fneg float %102
  %104 = fcmp olt float %101, %103
  br i1 %104, label %105, label %113

105:                                              ; preds = %99, %93, %85, %75
  call void @_ZN5zxing18ReaderErrorHandlerC2EPKc(ptr noundef nonnull align 8 dereferenceable(48) %20, ptr noundef @.str.2)
  %106 = load ptr, ptr %9, align 8
  %107 = invoke noundef nonnull align 8 dereferenceable(48) ptr @_ZN5zxing12ErrorHandleraSERKS0_(ptr noundef nonnull align 8 dereferenceable(48) %106, ptr noundef nonnull align 8 dereferenceable(48) %20)
          to label %108 unwind label %109

108:                                              ; preds = %105
  call void @_ZN5zxing18ReaderErrorHandlerD2Ev(ptr noundef nonnull align 8 dereferenceable(48) %20) #11
  store i32 -1, ptr %5, align 4
  br label %160

109:                                              ; preds = %105
  %110 = landingpad { ptr, i32 }
          cleanup
  %111 = extractvalue { ptr, i32 } %110, 0
  store ptr %111, ptr %12, align 8
  %112 = extractvalue { ptr, i32 } %110, 1
  store i32 %112, ptr %13, align 4
  call void @_ZN5zxing18ReaderErrorHandlerD2Ev(ptr noundef nonnull align 8 dereferenceable(48) %20) #11
  br label %162

113:                                              ; preds = %99
  br label %114

114:                                              ; preds = %113, %71
  %115 = load i32, ptr %18, align 4
  %116 = icmp sle i32 %115, -1
  br i1 %116, label %117, label %121

117:                                              ; preds = %114
  %118 = load ptr, ptr %8, align 8
  %119 = load i64, ptr %17, align 8
  %120 = call noundef nonnull align 4 dereferenceable(4) ptr @_ZNSt6vectorIfSaIfEEixEm(ptr noundef nonnull align 8 dereferenceable(24) %118, i64 noundef %119) #11
  store float 0.000000e+00, ptr %120, align 4
  br label %133

121:                                              ; preds = %114
  %122 = load i32, ptr %18, align 4
  %123 = load i32, ptr %6, align 4
  %124 = icmp sge i32 %122, %123
  br i1 %124, label %125, label %132

125:                                              ; preds = %121
  %126 = load i32, ptr %6, align 4
  %127 = sub nsw i32 %126, 1
  %128 = sitofp i32 %127 to float
  %129 = load ptr, ptr %8, align 8
  %130 = load i64, ptr %17, align 8
  %131 = call noundef nonnull align 4 dereferenceable(4) ptr @_ZNSt6vectorIfSaIfEEixEm(ptr noundef nonnull align 8 dereferenceable(24) %129, i64 noundef %130) #11
  store float %128, ptr %131, align 4
  br label %132

132:                                              ; preds = %125, %121
  br label %133

133:                                              ; preds = %132, %117
  %134 = load i32, ptr %19, align 4
  %135 = icmp sle i32 %134, -1
  br i1 %135, label %136, label %141

136:                                              ; preds = %133
  %137 = load ptr, ptr %8, align 8
  %138 = load i64, ptr %17, align 8
  %139 = add i64 %138, 1
  %140 = call noundef nonnull align 4 dereferenceable(4) ptr @_ZNSt6vectorIfSaIfEEixEm(ptr noundef nonnull align 8 dereferenceable(24) %137, i64 noundef %139) #11
  store float 0.000000e+00, ptr %140, align 4
  br label %154

141:                                              ; preds = %133
  %142 = load i32, ptr %19, align 4
  %143 = load i32, ptr %7, align 4
  %144 = icmp sge i32 %142, %143
  br i1 %144, label %145, label %153

145:                                              ; preds = %141
  %146 = load i32, ptr %7, align 4
  %147 = sub nsw i32 %146, 1
  %148 = sitofp i32 %147 to float
  %149 = load ptr, ptr %8, align 8
  %150 = load i64, ptr %17, align 8
  %151 = add i64 %150, 1
  %152 = call noundef nonnull align 4 dereferenceable(4) ptr @_ZNSt6vectorIfSaIfEEixEm(ptr noundef nonnull align 8 dereferenceable(24) %149, i64 noundef %151) #11
  store float %148, ptr %152, align 4
  br label %153

153:                                              ; preds = %145, %141
  br label %154

154:                                              ; preds = %153, %136
  br label %155

155:                                              ; preds = %154
  %156 = load i64, ptr %17, align 8
  %157 = add i64 %156, 2
  store i64 %157, ptr %17, align 8
  br label %45, !llvm.loop !8

158:                                              ; preds = %45
  %159 = load i32, ptr %15, align 4
  store i32 %159, ptr %5, align 4
  br label %160

160:                                              ; preds = %158, %108, %30
  %161 = load i32, ptr %5, align 4
  ret i32 %161

162:                                              ; preds = %109, %31
  %163 = load ptr, ptr %12, align 8
  %164 = load i32, ptr %13, align 4
  %165 = insertvalue { ptr, i32 } poison, ptr %163, 0
  %166 = insertvalue { ptr, i32 } %165, i32 %164, 1
  resume { ptr, i32 } %166
}