; Function Attrs: mustprogress uwtable
define hidden noundef i32 @_ZN5zxing11GridSampler19checkAndNudgePointsEiiRSt6vectorIfSaIfEERNS_12ErrorHandlerE(i32 noundef %0, i32 noundef %1, ptr nocapture noundef nonnull readonly align 8 dereferenceable(24) %2, ptr noundef nonnull align 8 dereferenceable(48) %3) local_unnamed_addr #1 align 2 personality ptr @__gxx_personality_v0 {
  %5 = alloca %"class.zxing::ReaderErrorHandler", align 8
  %6 = alloca %"class.zxing::ReaderErrorHandler", align 8
  %7 = getelementptr inbounds i8, ptr %2, i64 8
  %8 = load ptr, ptr %7, align 8
  %9 = load ptr, ptr %2, align 8
  %.not = icmp eq ptr %8, %9
  %.sink79.sroa.gep = getelementptr inbounds i8, ptr %6, i64 16
  %.sink79.sroa.gep82 = getelementptr inbounds i8, ptr %5, i64 16
  %.sink81.sroa.gep = getelementptr inbounds i8, ptr %6, i64 16
  %.sink81.sroa.gep83 = getelementptr inbounds i8, ptr %5, i64 16
  br i1 %.not, label %28, label %.lr.ph

.lr.ph:                                           ; preds = %4
  %10 = ptrtoint ptr %8 to i64
  %11 = ptrtoint ptr %9 to i64
  %12 = sub i64 %10, %11
  %13 = lshr exact i64 %12, 2
  %14 = trunc i64 %13 to i32
  %15 = sdiv i32 %14, 2
  %16 = sdiv i32 %0, %15
  %17 = mul nsw i32 %16, 3
  %18 = sitofp i32 %17 to float
  %19 = sitofp i32 %0 to float
  %20 = fadd float %19, %18
  %21 = sitofp i32 %1 to float
  %22 = fadd float %21, %18
  %23 = fneg float %18
  %24 = add nsw i32 %0, -1
  %25 = sitofp i32 %24 to float
  %26 = add nsw i32 %1, -1
  %27 = sitofp i32 %26 to float
  br label %34

28:                                               ; preds = %4
  call void @_ZN5zxing12ErrorHandlerC2EPKc(ptr noundef nonnull align 8 dereferenceable(48) %5, ptr noundef nonnull @.str.1)
  store ptr getelementptr inbounds inrange(-16, 64) (i8, ptr @_ZTVN5zxing18ReaderErrorHandlerE, i64 16), ptr %5, align 8
  %29 = getelementptr inbounds i8, ptr %5, i64 8
  store i32 3, ptr %29, align 8
  %30 = invoke noundef nonnull align 8 dereferenceable(48) ptr @_ZN5zxing12ErrorHandleraSERKS0_(ptr noundef nonnull align 8 dereferenceable(48) %3, ptr noundef nonnull align 8 dereferenceable(48) %5)
          to label %31 unwind label %32

31:                                               ; preds = %28
  store ptr getelementptr inbounds inrange(-16, 64) (i8, ptr @_ZTVN5zxing12ErrorHandlerE, i64 16), ptr %5, align 8
  br label %.loopexit.sink.split

32:                                               ; preds = %28
  %33 = landingpad { ptr, i32 }
          cleanup
  store ptr getelementptr inbounds inrange(-16, 64) (i8, ptr @_ZTVN5zxing12ErrorHandlerE, i64 16), ptr %5, align 8
  br label %83

34:                                               ; preds = %.lr.ph, %74
  %35 = phi ptr [ %9, %.lr.ph ], [ %77, %74 ]
  %.05171 = phi i64 [ 0, %.lr.ph ], [ %75, %74 ]
  %.05370 = phi i32 [ 0, %.lr.ph ], [ %.1, %74 ]
  %36 = getelementptr inbounds float, ptr %9, i64 %.05171
  %37 = load float, ptr %36, align 4
  %38 = fptosi float %37 to i32
  %39 = or disjoint i64 %.05171, 1
  %40 = getelementptr inbounds float, ptr %9, i64 %39
  %41 = load float, ptr %40, align 4
  %42 = fptosi float %41 to i32
  %43 = icmp slt i32 %38, -1
  br i1 %43, label %49, label %44

44:                                               ; preds = %34
  %45 = icmp sgt i32 %38, %0
  %46 = icmp slt i32 %42, -1
  %47 = icmp sgt i32 %42, %1
  %48 = or i1 %46, %47
  %or.cond67 = select i1 %45, i1 true, i1 %48
  br i1 %or.cond67, label %49, label %65

49:                                               ; preds = %44, %34
  %50 = add nsw i32 %.05370, 1
  %51 = sitofp i32 %38 to float
  %52 = fcmp olt float %20, %51
  br i1 %52, label %59, label %53

53:                                               ; preds = %49
  %54 = sitofp i32 %42 to float
  %55 = fcmp olt float %22, %54
  br i1 %55, label %59, label %56

56:                                               ; preds = %53
  %57 = fcmp olt float %51, %23
  %58 = fcmp olt float %54, %23
  %or.cond68 = or i1 %57, %58
  br i1 %or.cond68, label %59, label %65

59:                                               ; preds = %56, %53, %49
  call void @_ZN5zxing12ErrorHandlerC2EPKc(ptr noundef nonnull align 8 dereferenceable(48) %6, ptr noundef nonnull @.str.2)
  store ptr getelementptr inbounds inrange(-16, 64) (i8, ptr @_ZTVN5zxing18ReaderErrorHandlerE, i64 16), ptr %6, align 8
  %60 = getelementptr inbounds i8, ptr %6, i64 8
  store i32 3, ptr %60, align 8
  %61 = invoke noundef nonnull align 8 dereferenceable(48) ptr @_ZN5zxing12ErrorHandleraSERKS0_(ptr noundef nonnull align 8 dereferenceable(48) %3, ptr noundef nonnull align 8 dereferenceable(48) %6)
          to label %62 unwind label %63

62:                                               ; preds = %59
  store ptr getelementptr inbounds inrange(-16, 64) (i8, ptr @_ZTVN5zxing12ErrorHandlerE, i64 16), ptr %6, align 8
  br label %.loopexit.sink.split

63:                                               ; preds = %59
  %64 = landingpad { ptr, i32 }
          cleanup
  store ptr getelementptr inbounds inrange(-16, 64) (i8, ptr @_ZTVN5zxing12ErrorHandlerE, i64 16), ptr %6, align 8
  br label %83

65:                                               ; preds = %56, %44
  %.1 = phi i32 [ %.05370, %44 ], [ %50, %56 ]
  %66 = icmp slt i32 %38, 0
  br i1 %66, label %.sink.split, label %67

67:                                               ; preds = %65
  %.not64 = icmp slt i32 %38, %0
  br i1 %.not64, label %69, label %.sink.split

.sink.split:                                      ; preds = %67, %65
  %.sink = phi float [ 0.000000e+00, %65 ], [ %25, %67 ]
  %68 = getelementptr inbounds float, ptr %35, i64 %.05171
  store float %.sink, ptr %68, align 4
  br label %69

69:                                               ; preds = %.sink.split, %67
  %70 = icmp slt i32 %42, 0
  br i1 %70, label %.sink.split74, label %71

71:                                               ; preds = %69
  %.not65 = icmp slt i32 %42, %1
  br i1 %.not65, label %74, label %.sink.split74

.sink.split74:                                    ; preds = %71, %69
  %.sink75 = phi float [ 0.000000e+00, %69 ], [ %27, %71 ]
  %72 = load ptr, ptr %2, align 8
  %73 = getelementptr inbounds float, ptr %72, i64 %39
  store float %.sink75, ptr %73, align 4
  br label %74

74:                                               ; preds = %.sink.split74, %71
  %75 = add i64 %.05171, 2
  %76 = load ptr, ptr %7, align 8
  %77 = load ptr, ptr %2, align 8
  %78 = ptrtoint ptr %76 to i64
  %79 = ptrtoint ptr %77 to i64
  %80 = sub i64 %78, %79
  %81 = ashr exact i64 %80, 2
  %82 = icmp ult i64 %75, %81
  br i1 %82, label %34, label %.loopexit, !llvm.loop !8

.loopexit.sink.split:                             ; preds = %31, %62
  %.sink79.sroa.phi = phi ptr [ %.sink79.sroa.gep, %62 ], [ %.sink79.sroa.gep82, %31 ]
  call void @_ZNSt7__cxx1112basic_stringIcSt11char_traitsIcESaIcEED1Ev(ptr noundef nonnull align 8 dereferenceable(32) %.sink79.sroa.phi) #12
  br label %.loopexit

.loopexit:                                        ; preds = %74, %.loopexit.sink.split
  %.0 = phi i32 [ -1, %.loopexit.sink.split ], [ %.1, %74 ]
  ret i32 %.0

83:                                               ; preds = %63, %32
  %.sink81.sroa.phi = phi ptr [ %.sink81.sroa.gep, %63 ], [ %.sink81.sroa.gep83, %32 ]
  %.pn = phi { ptr, i32 } [ %64, %63 ], [ %33, %32 ]
  call void @_ZNSt7__cxx1112basic_stringIcSt11char_traitsIcESaIcEED1Ev(ptr noundef nonnull align 8 dereferenceable(32) %.sink81.sroa.phi) #12
  resume { ptr, i32 } %.pn
}